target datalayout = "e-m:e-p270:32:32-p271:32:32-p272:64:64-i64:64-i128:128-f80:128-n8:16:32:64-S128"
target triple = "x86_64-pc-linux-gnu"

%struct.wl_list = type { ptr, ptr }
%struct.SDL_WindowData = type { ptr, ptr, ptr, ptr, ptr, ptr, ptr, %union.anon, i32, i32, i32, i32, ptr, ptr, ptr, ptr, ptr, ptr, ptr, ptr, ptr, ptr, ptr, ptr, ptr, ptr, %struct.SDL_AtomicInt, ptr, i32, ptr, double, ptr, i32, i32, i32, i32, %struct.anon.3, %struct.anon.4, %struct.anon.5, %struct.anon.6, %struct.anon.7, %struct.anon.8, %struct.anon.9, i32, i32, i32, i64, i32, i32, i8, i8, i8, i8, i8, i8, i8, i8, i8, i8, i8, i8, i8, i8, i32, %struct.wl_list }
%union.anon = type { %struct.anon }
%struct.anon = type { ptr, %union.anon.0, i8 }
%union.anon.0 = type { %struct.anon.2 }
%struct.anon.2 = type { ptr, ptr }
%struct.SDL_AtomicInt = type { i32 }
%struct.anon.3 = type { double, double }
%struct.anon.4 = type { i32, i32, i32, i32 }
%struct.anon.5 = type { i32, i32, i32, i32 }
%struct.anon.6 = type { i32, i32 }
%struct.anon.7 = type { i32, i32 }
%struct.anon.8 = type { i32, i32 }
%struct.anon.9 = type { i32, i32, i8 }
%struct.SDL_VideoData = type { i8, ptr, i32, ptr, ptr, ptr, ptr, i32, %struct.anon.10, ptr, ptr, ptr, ptr, ptr, ptr, ptr, ptr, ptr, ptr, ptr, ptr, ptr, ptr, ptr, ptr, ptr, ptr, ptr, ptr, ptr, ptr, %struct.wl_list, ptr, ptr, ptr, ptr, i32, i32, i8, i8 }
%struct.anon.10 = type { ptr }
%struct.SDL_VideoDevice = type { ptr, ptr, ptr, ptr, ptr, ptr, ptr, ptr, ptr, ptr, ptr, ptr, ptr, ptr, ptr, ptr, ptr, ptr, ptr, ptr, ptr, ptr, ptr, ptr, ptr, ptr, ptr, ptr, ptr, ptr, ptr, ptr, ptr, ptr, ptr, ptr, ptr, ptr, ptr, ptr, ptr, ptr, ptr, ptr, ptr, ptr, ptr, ptr, ptr, ptr, ptr, ptr, ptr, ptr, ptr, ptr, ptr, ptr, ptr, ptr, ptr, ptr, ptr, ptr, ptr, ptr, ptr, ptr, ptr, ptr, ptr, ptr, ptr, ptr, ptr, ptr, ptr, ptr, ptr, ptr, ptr, ptr, ptr, ptr, ptr, ptr, ptr, ptr, ptr, ptr, ptr, ptr, ptr, ptr, ptr, ptr, ptr, i64, i8, i8, i8, ptr, i32, ptr, %struct.SDL_Rect, ptr, ptr, i32, ptr, ptr, ptr, ptr, i64, ptr, i8, i32, i32, %struct.anon.11, ptr, ptr, ptr, ptr, ptr, ptr, %struct.SDL_AtomicInt, %struct.SDL_AtomicInt, i8, %struct.anon.12, ptr, ptr, ptr, ptr, ptr }
%struct.SDL_Rect = type { i32, i32, i32, i32 }
%struct.anon.11 = type { i32, i32, i32, i32, i32, i32, i32, i32, i32, i32, i32, i32, i32, i32, i32, i32, i32, i32, i32, i32, i32, i32, i32, i32, i32, i32, i32, i32, i32, [256 x i8], ptr }
%struct.anon.12 = type { ptr, ptr, i32, [256 x i8], ptr }
%struct.SDL_VideoDisplay = type { i32, ptr, i32, i32, ptr, %struct.SDL_DisplayMode, ptr, i32, i32, float, %struct.SDL_HDROutputProperties, i8, ptr, ptr, i32, ptr }
%struct.SDL_DisplayMode = type { i32, i32, i32, i32, float, float, i32, i32, ptr }
%struct.SDL_HDROutputProperties = type { float, float }
%struct.SDL_DisplayData = type { ptr, ptr, ptr, ptr, ptr, double, i32, i32, i32, i32, i32, i32, i32, i32, i32, i32, i32, i32, i8, i8, i8, %struct.SDL_HDROutputProperties, i32, %struct.SDL_VideoDisplay, i32, ptr }
%struct.SDL_Window = type { i32, ptr, ptr, i32, i32, i32, i32, i32, i32, i32, i32, float, float, i32, i32, i64, i64, float, i8, i8, i32, i32, %struct.SDL_Rect, %struct.SDL_Rect, %struct.SDL_Rect, i8, i8, i8, %struct.SDL_DisplayMode, %struct.SDL_DisplayMode, %struct.SDL_HDROutputProperties, float, ptr, i8, i8, i8, i8, i8, i8, i8, i8, i8, i32, i32, i32, i32, %struct.SDL_Rect, i32, i8, %struct.SDL_Rect, i32, %struct.SDL_Rect, ptr, ptr, i32, float, i32, i32, ptr, ptr, ptr, ptr, ptr, ptr, ptr, ptr, ptr }

; Function Attrs: nounwind uwtable
define internal zeroext i1 @Wayland_GetDisplayBounds(ptr noundef %0, ptr noundef %1, ptr noundef %2) #0 {
  %4 = alloca ptr, align 8
  %5 = alloca ptr, align 8
  %6 = alloca ptr, align 8
  %7 = alloca ptr, align 8
  %8 = alloca ptr, align 8
  store ptr %0, ptr %4, align 8
  store ptr %1, ptr %5, align 8
  store ptr %2, ptr %6, align 8
  call void @llvm.lifetime.start.p0(i64 8, ptr %7) #8
  %9 = load ptr, ptr %4, align 8
  %10 = getelementptr inbounds nuw %struct.SDL_VideoDevice, ptr %9, i32 0, i32 128
  %11 = load ptr, ptr %10, align 8
  store ptr %11, ptr %7, align 8
  call void @llvm.lifetime.start.p0(i64 8, ptr %8) #8
  %12 = load ptr, ptr %5, align 8
  %13 = getelementptr inbounds nuw %struct.SDL_VideoDisplay, ptr %12, i32 0, i32 15
  %14 = load ptr, ptr %13, align 8
  store ptr %14, ptr %8, align 8
  %15 = load ptr, ptr %8, align 8
  %16 = getelementptr inbounds nuw %struct.SDL_DisplayData, ptr %15, i32 0, i32 11
  %17 = load i32, ptr %16, align 4
  %18 = load ptr, ptr %6, align 8
  %19 = getelementptr inbounds nuw %struct.SDL_Rect, ptr %18, i32 0, i32 0
  store i32 %17, ptr %19, align 4
  %20 = load ptr, ptr %8, align 8
  %21 = getelementptr inbounds nuw %struct.SDL_DisplayData, ptr %20, i32 0, i32 12
  %22 = load i32, ptr %21, align 8
  %23 = load ptr, ptr %6, align 8
  %24 = getelementptr inbounds nuw %struct.SDL_Rect, ptr %23, i32 0, i32 1
  store i32 %22, ptr %24, align 4
  %25 = load ptr, ptr %5, align 8
  %26 = getelementptr inbounds nuw %struct.SDL_VideoDisplay, ptr %25, i32 0, i32 12
  %27 = load ptr, ptr %26, align 8
  %28 = icmp ne ptr %27, null
  br i1 %28, label %29, label %78

29:                                               ; preds = %3
  %30 = load ptr, ptr %5, align 8
  %31 = getelementptr inbounds nuw %struct.SDL_VideoDisplay, ptr %30, i32 0, i32 12
  %32 = load ptr, ptr %31, align 8
  %33 = getelementptr inbounds nuw %struct.SDL_Window, ptr %32, i32 0, i32 19
  %34 = load i8, ptr %33, align 1, !range !5, !noundef !6
  %35 = trunc i8 %34 to i1
  br i1 %35, label %36, label %78

36:                                               ; preds = %29
  %37 = load ptr, ptr %5, align 8
  %38 = getelementptr inbounds nuw %struct.SDL_VideoDisplay, ptr %37, i32 0, i32 12
  %39 = load ptr, ptr %38, align 8
  %40 = getelementptr inbounds nuw %struct.SDL_Window, ptr %39, i32 0, i32 59
  %41 = load ptr, ptr %40, align 8
  %42 = getelementptr inbounds nuw %struct.SDL_WindowData, ptr %41, i32 0, i32 52
  %43 = load i8, ptr %42, align 1, !range !5, !noundef !6
  %44 = trunc i8 %43 to i1
  br i1 %44, label %45, label %78

45:                                               ; preds = %36
  %46 = load ptr, ptr %5, align 8
  %47 = getelementptr inbounds nuw %struct.SDL_VideoDisplay, ptr %46, i32 0, i32 12
  %48 = load ptr, ptr %47, align 8
  %49 = getelementptr inbounds nuw %struct.SDL_Window, ptr %48, i32 0, i32 29
  %50 = getelementptr inbounds nuw %struct.SDL_DisplayMode, ptr %49, i32 0, i32 2
  %51 = load i32, ptr %50, align 8
  %52 = icmp ne i32 %51, 0
  br i1 %52, label %53, label %78

53:                                               ; preds = %45
  %54 = load ptr, ptr %5, align 8
  %55 = getelementptr inbounds nuw %struct.SDL_VideoDisplay, ptr %54, i32 0, i32 12
  %56 = load ptr, ptr %55, align 8
  %57 = getelementptr inbounds nuw %struct.SDL_Window, ptr %56, i32 0, i32 29
  %58 = getelementptr inbounds nuw %struct.SDL_DisplayMode, ptr %57, i32 0, i32 3
  %59 = load i32, ptr %58, align 4
  %60 = icmp ne i32 %59, 0
  br i1 %60, label %61, label %78

61:                                               ; preds = %53
  %62 = load ptr, ptr %5, align 8
  %63 = getelementptr inbounds nuw %struct.SDL_VideoDisplay, ptr %62, i32 0, i32 12
  %64 = load ptr, ptr %63, align 8
  %65 = getelementptr inbounds nuw %struct.SDL_Window, ptr %64, i32 0, i32 29
  %66 = getelementptr inbounds nuw %struct.SDL_DisplayMode, ptr %65, i32 0, i32 2
  %67 = load i32, ptr %66, align 8
  %68 = load ptr, ptr %6, align 8
  %69 = getelementptr inbounds nuw %struct.SDL_Rect, ptr %68, i32 0, i32 2
  store i32 %67, ptr %69, align 4
  %70 = load ptr, ptr %5, align 8
  %71 = getelementptr inbounds nuw %struct.SDL_VideoDisplay, ptr %70, i32 0, i32 12
  %72 = load ptr, ptr %71, align 8
  %73 = getelementptr inbounds nuw %struct.SDL_Window, ptr %72, i32 0, i32 29
  %74 = getelementptr inbounds nuw %struct.SDL_DisplayMode, ptr %73, i32 0, i32 3
  %75 = load i32, ptr %74, align 4
  %76 = load ptr, ptr %6, align 8
  %77 = getelementptr inbounds nuw %struct.SDL_Rect, ptr %76, i32 0, i32 3
  store i32 %75, ptr %77, align 4
  br label %128

78:                                               ; preds = %53, %45, %36, %29, %3
  %79 = load ptr, ptr %7, align 8
  %80 = getelementptr inbounds nuw %struct.SDL_VideoData, ptr %79, i32 0, i32 39
  %81 = load i8, ptr %80, align 1, !range !5, !noundef !6
  %82 = trunc i8 %81 to i1
  br i1 %82, label %98, label %83

83:                                               ; preds = %78
  %84 = load ptr, ptr %5, align 8
  %85 = getelementptr inbounds nuw %struct.SDL_VideoDisplay, ptr %84, i32 0, i32 6
  %86 = load ptr, ptr %85, align 8
  %87 = getelementptr inbounds nuw %struct.SDL_DisplayMode, ptr %86, i32 0, i32 2
  %88 = load i32, ptr %87, align 8
  %89 = load ptr, ptr %6, align 8
  %90 = getelementptr inbounds nuw %struct.SDL_Rect, ptr %89, i32 0, i32 2
  store i32 %88, ptr %90, align 4
  %91 = load ptr, ptr %5, align 8
  %92 = getelementptr inbounds nuw %struct.SDL_VideoDisplay, ptr %91, i32 0, i32 6
  %93 = load ptr, ptr %92, align 8
  %94 = getelementptr inbounds nuw %struct.SDL_DisplayMode, ptr %93, i32 0, i32 3
  %95 = load i32, ptr %94, align 4
  %96 = load ptr, ptr %6, align 8
  %97 = getelementptr inbounds nuw %struct.SDL_Rect, ptr %96, i32 0, i32 3
  store i32 %95, ptr %97, align 4
  br label %127

98:                                               ; preds = %78
  %99 = load ptr, ptr %8, align 8
  %100 = getelementptr inbounds nuw %struct.SDL_DisplayData, ptr %99, i32 0, i32 14
  %101 = load i32, ptr %100, align 8
  %102 = and i32 %101, 1
  %103 = icmp ne i32 %102, 0
  br i1 %103, label %104, label %115

104:                                              ; preds = %98
  %105 = load ptr, ptr %8, align 8
  %106 = getelementptr inbounds nuw %struct.SDL_DisplayData, ptr %105, i32 0, i32 10
  %107 = load i32, ptr %106, align 8
  %108 = load ptr, ptr %6, align 8
  %109 = getelementptr inbounds nuw %struct.SDL_Rect, ptr %108, i32 0, i32 2
  store i32 %107, ptr %109, align 4
  %110 = load ptr, ptr %8, align 8
  %111 = getelementptr inbounds nuw %struct.SDL_DisplayData, ptr %110, i32 0, i32 9
  %112 = load i32, ptr %111, align 4
  %113 = load ptr, ptr %6, align 8
  %114 = getelementptr inbounds nuw %struct.SDL_Rect, ptr %113, i32 0, i32 3
  store i32 %112, ptr %114, align 4
  br label %126

115:                                              ; preds = %98
  %116 = load ptr, ptr %8, align 8
  %117 = getelementptr inbounds nuw %struct.SDL_DisplayData, ptr %116, i32 0, i32 9
  %118 = load i32, ptr %117, align 4
  %119 = load ptr, ptr %6, align 8
  %120 = getelementptr inbounds nuw %struct.SDL_Rect, ptr %119, i32 0, i32 2
  store i32 %118, ptr %120, align 4
  %121 = load ptr, ptr %8, align 8
  %122 = getelementptr inbounds nuw %struct.SDL_DisplayData, ptr %121, i32 0, i32 10
  %123 = load i32, ptr %122, align 8
  %124 = load ptr, ptr %6, align 8
  %125 = getelementptr inbounds nuw %struct.SDL_Rect, ptr %124, i32 0, i32 3
  store i32 %123, ptr %125, align 4
  br label %126

126:                                              ; preds = %115, %104
  br label %127

127:                                              ; preds = %126, %83
  br label %128

128:                                              ; preds = %127, %61
  call void @llvm.lifetime.end.p0(i64 8, ptr %8) #8
  call void @llvm.lifetime.end.p0(i64 8, ptr %7) #8
  ret i1 true
}