; Function Attrs: mustprogress nofree norecurse nosync nounwind willreturn memory(read, argmem: readwrite, inaccessiblemem: none) uwtable
define internal noundef zeroext i1 @Wayland_GetDisplayBounds(ptr noundef readonly captures(none) %0, ptr noundef readonly captures(none) %1, ptr noundef writeonly captures(none) initializes((0, 16)) %2) #5 {
  %4 = getelementptr inbounds nuw i8, ptr %0, i64 1656
  %5 = load ptr, ptr %4, align 8
  %6 = getelementptr inbounds nuw i8, ptr %1, i64 128
  %7 = load ptr, ptr %6, align 8
  %8 = getelementptr inbounds nuw i8, ptr %7, i64 68
  %9 = load i32, ptr %8, align 4
  store i32 %9, ptr %2, align 4
  %10 = getelementptr inbounds nuw i8, ptr %7, i64 72
  %11 = load i32, ptr %10, align 8
  %12 = getelementptr inbounds nuw i8, ptr %2, i64 4
  store i32 %11, ptr %12, align 4
  %13 = getelementptr inbounds nuw i8, ptr %1, i64 104
  %14 = load ptr, ptr %13, align 8
  %.not = icmp eq ptr %14, null
  br i1 %.not, label %37, label %15

15:                                               ; preds = %3
  %16 = getelementptr inbounds nuw i8, ptr %14, i64 93
  %17 = load i8, ptr %16, align 1, !range !5, !noundef !6
  %18 = trunc nuw i8 %17 to i1
  br i1 %18, label %19, label %37

19:                                               ; preds = %15
  %20 = getelementptr inbounds nuw i8, ptr %14, i64 392
  %21 = load ptr, ptr %20, align 8
  %22 = getelementptr inbounds nuw i8, ptr %21, i64 395
  %23 = load i8, ptr %22, align 1, !range !5, !noundef !6
  %24 = trunc nuw i8 %23 to i1
  br i1 %24, label %25, label %37

25:                                               ; preds = %19
  %26 = getelementptr inbounds nuw i8, ptr %14, i64 208
  %27 = load i32, ptr %26, align 8
  %.not30 = icmp eq i32 %27, 0
  br i1 %.not30, label %37, label %28

28:                                               ; preds = %25
  %29 = getelementptr inbounds nuw i8, ptr %14, i64 212
  %30 = load i32, ptr %29, align 4
  %.not31 = icmp eq i32 %30, 0
  br i1 %.not31, label %37, label %31

31:                                               ; preds = %28
  %32 = getelementptr inbounds nuw i8, ptr %2, i64 8
  store i32 %27, ptr %32, align 4
  %33 = load ptr, ptr %13, align 8
  %34 = getelementptr inbounds nuw i8, ptr %33, i64 212
  %35 = load i32, ptr %34, align 4
  %36 = getelementptr inbounds nuw i8, ptr %2, i64 12
  store i32 %35, ptr %36, align 4
  br label %66

37:                                               ; preds = %28, %25, %19, %15, %3
  %38 = getelementptr inbounds nuw i8, ptr %5, i64 305
  %39 = load i8, ptr %38, align 1, !range !5, !noundef !6
  %40 = trunc nuw i8 %39 to i1
  %41 = getelementptr inbounds nuw i8, ptr %2, i64 8
  br i1 %40, label %51, label %42

42:                                               ; preds = %37
  %43 = getelementptr inbounds nuw i8, ptr %1, i64 72
  %44 = load ptr, ptr %43, align 8
  %45 = getelementptr inbounds nuw i8, ptr %44, i64 8
  %46 = load i32, ptr %45, align 8
  store i32 %46, ptr %41, align 4
  %47 = load ptr, ptr %43, align 8
  %48 = getelementptr inbounds nuw i8, ptr %47, i64 12
  %49 = load i32, ptr %48, align 4
  %50 = getelementptr inbounds nuw i8, ptr %2, i64 12
  store i32 %49, ptr %50, align 4
  br label %66

51:                                               ; preds = %37
  %52 = getelementptr inbounds nuw i8, ptr %7, i64 80
  %53 = load i32, ptr %52, align 8
  %54 = and i32 %53, 1
  %.not32 = icmp eq i32 %54, 0
  %55 = getelementptr inbounds nuw i8, ptr %2, i64 12
  br i1 %.not32, label %61, label %56

56:                                               ; preds = %51
  %57 = getelementptr inbounds nuw i8, ptr %7, i64 64
  %58 = load i32, ptr %57, align 8
  store i32 %58, ptr %41, align 4
  %59 = getelementptr inbounds nuw i8, ptr %7, i64 60
  %60 = load i32, ptr %59, align 4
  store i32 %60, ptr %55, align 4
  br label %66

61:                                               ; preds = %51
  %62 = getelementptr inbounds nuw i8, ptr %7, i64 60
  %63 = load i32, ptr %62, align 4
  store i32 %63, ptr %41, align 4
  %64 = getelementptr inbounds nuw i8, ptr %7, i64 64
  %65 = load i32, ptr %64, align 8
  store i32 %65, ptr %55, align 4
  br label %66

66:                                               ; preds = %42, %61, %56, %31
  ret i1 true
}